(lp0
(lp1
S'main.cpp'
p2
aS'#include "MicroBit.h"\n#include "images.h"\n\nint last = -1;\nint value = 0;\n\nvoid app_main()\n{\n    while (1)\n    {\n        value = uBit.compass.heading() / 15;\n        uBit.display.stopAnimation();\n\n        if (last != value) {\n            last = value;\n            uBit.display.clear();\n        }\n        \n        if (last == 0) {\n            uBit.display.print(N,0,0,0);\n        } else if (last == 1) {\n            uBit.display.print(NNNW,0,0,400);\n        } else if (last == 2) {\n            uBit.display.print(NNW,0,0,400);\n        } else if (last == 3) {\n            uBit.display.print(NW,0,0,400);\n        } else if (last == 4) {\n            uBit.display.print(NWW,0,0,400);\n        } else if (last == 5) {\n            uBit.display.print(NWWW,0,0,400);\n        } else if (last == 6) {\n            uBit.display.print(W,0,0,400);\n        } else if (last == 7) {\n            uBit.display.print(SWWW,0,0,400);\n        } else if (last == 8) {\n            uBit.display.print(SWW,0,0,0);\n        } else if (last == 9) {\n            uBit.display.print(SW,0,0,400);\n        } else if (last == 10) {\n            uBit.display.print(SSW,0,0,400);\n        } else if (last == 11) {\n            uBit.display.print(SSSW,0,0,400);\n        } else if (last == 12) {\n            uBit.display.print(S,0,0,400);\n        } else if (last == 13) {\n            uBit.display.print(SSSE,0,0,400);\n        } else if (last == 14) {\n            uBit.display.print(SSE,0,0,400);\n        } else if (last == 15) {\n            uBit.display.print(SE,0,0,400);\n        } else if (last == 16) {\n            uBit.display.print(SEE,0,0,0);\n        } else if (last == 17) {\n            uBit.display.print(SEEE,0,0,400);\n        } else if (last == 18) {\n            uBit.display.print(E,0,0,400);\n        } else if (last == 19) {\n            uBit.display.print(NEEE,0,0,400);\n        } else if (last == 20) {\n            uBit.display.print(NEE,0,0,400);\n        } else if (last == 21) {\n            uBit.display.print(NE,0,0,400);\n        } else if (last == 22) {\n            uBit.display.print(NNE,0,0,400);\n        } else if (last == 23) {\n            uBit.display.print(NNNE,0,0,400);\n        }\n        \n        uBit.sleep(100);\n    }\n}\n'
p3
aa(lp4
S'images.h'
p5
aS'MicroBitImage smile("0,1,0,1,0\\n\\\n                     0,1,0,1,0\\n\\\n                     0,0,0,0,0\\n\\\n                     1,0,0,0,1\\n\\\n                     0,1,1,1,0\\n");\nMicroBitImage frown("0,1,0,1,0\\n\\\n                     0,1,0,1,0\\n\\\n                     0,0,0,0,0\\n\\\n                     0,1,1,1,0\\n\\\n                     1,0,0,0,1\\n");\nMicroBitImage blank("0,1,0,1,0\\n\\\n                     0,1,0,1,0\\n\\\n                     0,0,0,0,0\\n\\\n                     1,1,1,1,1\\n\\\n                     0,0,0,0,0\\n");\n\nMicroBitImage N("0,0,1,0,0\\n\\\n                 0,0,1,0,0\\n\\\n                 0,0,1,0,0\\n\\\n                 0,0,0,0,0\\n\\\n                 0,0,0,0,0\\n");\nMicroBitImage NNNE("0,0,0,1,0\\n\\\n                     0,0,1,0,0\\n\\\n                   0,0,1,0,0\\n\\\n                   0,0,0,0,0\\n\\\n                   0,0,0,0,0\\n");\nMicroBitImage NNE("0,0,0,1,0\\n\\\n                      0,0,0,1,0\\n\\\n                    0,0,1,0,0\\n\\\n                    0,0,0,0,0\\n\\\n                    0,0,0,0,0\\n");\nMicroBitImage NE("0,0,0,0,1\\n\\\n                  0,0,0,1,0\\n\\\n                  0,0,1,0,0\\n\\\n                  0,0,0,0,0\\n\\\n                  0,0,0,0,0\\n");\nMicroBitImage NEE("0,0,0,0,0\\n\\\n                    0,0,0,1,1\\n\\\n                    0,0,1,0,0\\n\\\n                   0,0,0,0,0\\n\\\n                   0,0,0,0,0\\n");\nMicroBitImage NEEE("0,0,0,0,0\\n\\\n                     0,0,0,0,1\\n\\\n                     0,0,1,1,0\\n\\\n                    0,0,0,0,0\\n\\\n                    0,0,0,0,0\\n");\nMicroBitImage E("0,0,0,0,0\\n\\\n                 0,0,0,0,0\\n\\\n                 0,0,1,1,1\\n\\\n                 0,0,0,0,0\\n\\\n                 0,0,0,0,0\\n");\nMicroBitImage SEEE("0,0,0,0,0\\n\\\n                    0,0,0,0,0\\n\\\n                    0,0,1,1,0\\n\\\n                    0,0,0,0,1\\n\\\n                    0,0,0,0,0\\n");\nMicroBitImage SEE("0,0,0,0,0\\n\\\n                   0,0,0,0,0\\n\\\n                   0,0,1,0,0\\n\\\n                   0,0,0,1,1\\n\\\n                   0,0,0,0,0\\n");\nMicroBitImage SE("0,0,0,0,0\\n\\\n                  0,0,0,0,0\\n\\\n                  0,0,1,0,0\\n\\\n                  0,0,0,1,0\\n\\\n                  0,0,0,0,1\\n");\nMicroBitImage SSE("0,0,0,0,0\\n\\\n                  0,0,0,0,0\\n\\\n                  0,0,1,0,0\\n\\\n                  0,0,0,1,0\\n\\\n                  0,0,0,1,0\\n");\nMicroBitImage SSSE("0,0,0,0,0\\n\\\n                   0,0,0,0,0\\n\\\n                   0,0,1,0,0\\n\\\n                   0,0,1,0,0\\n\\\n                   0,0,0,1,0\\n");\nMicroBitImage S("0,0,0,0,0\\n\\\n                 0,0,0,0,0\\n\\\n                 0,0,1,0,0\\n\\\n                 0,0,1,0,0\\n\\\n                 0,0,1,0,0\\n");\nMicroBitImage SSSW("0,0,0,0,0\\n\\\n                    0,0,0,0,0\\n\\\n                    0,0,1,0,0\\n\\\n                    0,0,1,0,0\\n\\\n                    0,1,0,0,0\\n");\nMicroBitImage SSW("0,0,0,0,0\\n\\\n                   0,0,0,0,0\\n\\\n                   0,0,1,0,0\\n\\\n                   0,1,0,0,0\\n\\\n                   0,1,0,0,0\\n");\nMicroBitImage SW("0,0,0,0,0\\n\\\n                   0,0,0,0,0\\n\\\n                     0,0,1,0,0\\n\\\n                  0,1,0,0,0\\n\\\n                  1,0,0,0,0\\n");\nMicroBitImage SWW("0,0,0,0,0\\n\\\n                   0,0,0,0,0\\n\\\n                     0,0,1,0,0\\n\\\n                  1,1,0,0,0\\n\\\n                  0,0,0,0,0\\n");\nMicroBitImage SWWW("0,0,0,0,0\\n\\\n                    0,0,0,0,0\\n\\\n                      0,1,1,0,0\\n\\\n                   1,0,0,0,0\\n\\\n                   0,0,0,0,0\\n");\nMicroBitImage W("0,0,0,0,0\\n\\\n                 0,0,0,0,0\\n\\\n                 1,1,1,0,0\\n\\\n                 0,0,0,0,0\\n\\\n                 0,0,0,0,0\\n");\nMicroBitImage NWWW("0,0,0,0,0\\n\\\n                    1,0,0,0,0\\n\\\n                    0,1,1,0,0\\n\\\n                    0,0,0,0,0\\n\\\n                    0,0,0,0,0\\n");\nMicroBitImage NWW("0,0,0,0,0\\n\\\n                   1,1,0,0,0\\n\\\n                   0,0,1,0,0\\n\\\n                   0,0,0,0,0\\n\\\n                   0,0,0,0,0\\n");\nMicroBitImage NW("1,0,0,0,0\\n\\\n                  0,1,0,0,0\\n\\\n                  0,0,1,0,0\\n\\\n                  0,0,0,0,0\\n\\\n                  0,0,0,0,0\\n");\nMicroBitImage NNW("0,1,0,0,0\\n\\\n                   0,1,0,0,0\\n\\\n                   0,0,1,0,0\\n\\\n                   0,0,0,0,0\\n\\\n                   0,0,0,0,0\\n");\nMicroBitImage NNNW("0,1,0,0,0\\n\\\n                    0,0,1,0,0\\n\\\n                    0,0,1,0,0\\n\\\n                    0,0,0,0,0\\n\\\n                    0,0,0,0,0\\n");\n'
p6
aa.