(lp0
(lp1
S'main.cpp'
p2
aS'#include "header.h"\n#include "MicroBit.h"\n\nMicroBitSerial serial(USBTX, USBRX);\nMicroBitImage img;\n\nvoid app_main()\n{\n\twhile (1) {\n\t\timg = serial.readImage(5, 5);\n\t\tuBit.display.clear();\n\t\tuBit.display.print(img, 0, 0, 4);\n\t\tuBit.sleep(100);\n\t}\n}\n'
p3
aa(lp4
S'header.h'
p5
aS''
p6
aa.