(dp0
S'main.cpp'
p1
S'/*\n * 01 Serial Send.mpi\n * \n * Copyright 2016 Nathan Taylor <bottersnike237@gmail.com>\n * \n * This program is free software; you can redistribute it and/or modify\n * it under the terms of the GNU General Public License as published by\n * the Free Software Foundation; either version 2 of the License, or\n * (at your option) any later version.\n * \n * This program is distributed in the hope that it will be useful,\n * but WITHOUT ANY WARRANTY; without even the implied warranty of\n * MERCHANTABILITY or FITNESS FOR A PARTICULAR PURPOSE.  See the\n * GNU General Public License for more details.\n * \n * You should have received a copy of the GNU General Public License\n * along with this program; if not, write to the Free Software\n * Foundation, Inc., 51 Franklin Street, Fifth Floor, Boston,\n * MA 02110-1301, USA.\n * \n * This program sends "Hello World!" over the usb connection to your PC. To view\n * the serial output, go to Deploy->Serial Monitor or hit Ctrl+M. Click refresh\n * then select a device from the menu on the right.\n */\n\n#include "MicroBit.h"\n\nMicroBitSerial serial(USBTX, USBRX);\n\nvoid app_main()\n{\n\twhile (1) {\n\t\tserial.sendString("Hello World!");\n\t\tuBit.sleep(500);\n\t}\n}\n'
p2
s.